target datalayout = "e-m:e-p270:32:32-p271:32:32-p272:64:64-i64:64-i128:128-f80:128-n8:16:32:64-S128"
target triple = "x86_64-pc-linux-gnu"

%union.pthread_mutex_t = type { %struct.__pthread_mutex_s }
%struct.__pthread_mutex_s = type { i32, i32, i32, i32, i32, i16, i16, %struct.__pthread_internal_list }
%struct.__pthread_internal_list = type { ptr, ptr }
%struct.tMPI_Atomic = type { i32, [60 x i8] }
%union.pthread_cond_t = type { %struct.__pthread_cond_s }
%struct.__pthread_cond_s = type { %union.__atomic_wide_counter, %union.__atomic_wide_counter, [2 x i32], [2 x i32], i32, i32, [2 x i32] }
%union.__atomic_wide_counter = type { i64 }
%struct.tMPI_Thread_barrier_t = type { %struct.tMPI_Atomic, ptr, i32, i32, i32 }
%struct.tMPI_Thread_barrier = type { %struct.tMPI_Atomic, %union.pthread_mutex_t, %union.pthread_cond_t, i32, i32, i32 }

@_ZL12barrier_init = internal global %union.pthread_mutex_t zeroinitializer, align 8

; Function Attrs: mustprogress nounwind uwtable
define internal noundef i32 @_ZL29tMPI_Thread_barrier_init_onceP21tMPI_Thread_barrier_t(ptr noundef %0) #0 {
  %2 = alloca i32, align 4
  %3 = alloca ptr, align 8
  %4 = alloca i32, align 4
  store ptr %0, ptr %3, align 8
  store i32 0, ptr %4, align 4
  %5 = call i32 @pthread_mutex_lock(ptr noundef @_ZL12barrier_init) #8
  store i32 %5, ptr %4, align 4
  %6 = load i32, ptr %4, align 4
  %7 = icmp ne i32 %6, 0
  br i1 %7, label %8, label %10

8:                                                ; preds = %1
  %9 = load i32, ptr %4, align 4
  store i32 %9, ptr %2, align 4
  br label %49

10:                                               ; preds = %1
  %11 = load ptr, ptr %3, align 8
  %12 = getelementptr inbounds %struct.tMPI_Thread_barrier_t, ptr %11, i32 0, i32 1
  %13 = load ptr, ptr %12, align 8
  %14 = icmp eq ptr %13, null
  br i1 %14, label %15, label %43

15:                                               ; preds = %10
  %16 = call noalias ptr @malloc(i64 noundef 168) #9
  %17 = load ptr, ptr %3, align 8
  %18 = getelementptr inbounds %struct.tMPI_Thread_barrier_t, ptr %17, i32 0, i32 1
  store ptr %16, ptr %18, align 8
  %19 = load ptr, ptr %3, align 8
  %20 = getelementptr inbounds %struct.tMPI_Thread_barrier_t, ptr %19, i32 0, i32 1
  %21 = load ptr, ptr %20, align 8
  %22 = icmp eq ptr %21, null
  br i1 %22, label %23, label %24

23:                                               ; preds = %15
  store i32 12, ptr %4, align 4
  br label %46

24:                                               ; preds = %15
  %25 = load ptr, ptr %3, align 8
  %26 = getelementptr inbounds %struct.tMPI_Thread_barrier_t, ptr %25, i32 0, i32 1
  %27 = load ptr, ptr %26, align 8
  %28 = getelementptr inbounds %struct.tMPI_Thread_barrier, ptr %27, i32 0, i32 1
  %29 = call i32 @pthread_mutex_init(ptr noundef %28, ptr noundef null) #8
  store i32 %29, ptr %4, align 4
  %30 = load i32, ptr %4, align 4
  %31 = icmp ne i32 %30, 0
  br i1 %31, label %32, label %33

32:                                               ; preds = %24
  br label %46

33:                                               ; preds = %24
  %34 = load ptr, ptr %3, align 8
  %35 = getelementptr inbounds %struct.tMPI_Thread_barrier_t, ptr %34, i32 0, i32 1
  %36 = load ptr, ptr %35, align 8
  %37 = getelementptr inbounds %struct.tMPI_Thread_barrier, ptr %36, i32 0, i32 2
  %38 = call i32 @pthread_cond_init(ptr noundef %37, ptr noundef null) #8
  store i32 %38, ptr %4, align 4
  %39 = load i32, ptr %4, align 4
  %40 = icmp ne i32 %39, 0
  br i1 %40, label %41, label %42

41:                                               ; preds = %33
  br label %46

42:                                               ; preds = %33
  br label %43

43:                                               ; preds = %42, %10
  %44 = call i32 @pthread_mutex_unlock(ptr noundef @_ZL12barrier_init) #8
  store i32 %44, ptr %4, align 4
  %45 = load i32, ptr %4, align 4
  store i32 %45, ptr %2, align 4
  br label %49

46:                                               ; preds = %41, %32, %23
  %47 = call i32 @pthread_mutex_unlock(ptr noundef @_ZL12barrier_init) #8
  %48 = load i32, ptr %4, align 4
  store i32 %48, ptr %2, align 4
  br label %49

49:                                               ; preds = %46, %43, %8
  %50 = load i32, ptr %2, align 4
  ret i32 %50
}

; Function Attrs: mustprogress uwtable
define noundef i32 @_Z24tMPI_Thread_barrier_waitP21tMPI_Thread_barrier_t(ptr noundef %0) #2 {
  %2 = alloca i32, align 4
  %3 = alloca ptr, align 8
  %4 = alloca i32, align 4
  %5 = alloca i32, align 4
  store ptr %0, ptr %3, align 8
  %6 = load ptr, ptr %3, align 8
  %7 = getelementptr inbounds %struct.tMPI_Thread_barrier_t, ptr %6, i32 0, i32 0
  %8 = getelementptr inbounds %struct.tMPI_Atomic, ptr %7, i32 0, i32 0
  %9 = load i32, ptr %8, align 8
  %10 = icmp eq i32 %9, 0
  br i1 %10, label %11, label %19

11:                                               ; preds = %1
  %12 = load ptr, ptr %3, align 8
  %13 = call noundef i32 @_ZL29tMPI_Thread_barrier_init_onceP21tMPI_Thread_barrier_t(ptr noundef %12)
  store i32 %13, ptr %5, align 4
  %14 = load i32, ptr %5, align 4
  %15 = icmp ne i32 %14, 0
  br i1 %15, label %16, label %18

16:                                               ; preds = %11
  %17 = load i32, ptr %5, align 4
  store i32 %17, ptr %2, align 4
  br label %97

18:                                               ; preds = %11
  br label %19

19:                                               ; preds = %18, %1
  %20 = load ptr, ptr %3, align 8
  %21 = getelementptr inbounds %struct.tMPI_Thread_barrier_t, ptr %20, i32 0, i32 1
  %22 = load ptr, ptr %21, align 8
  %23 = getelementptr inbounds %struct.tMPI_Thread_barrier, ptr %22, i32 0, i32 1
  %24 = call i32 @pthread_mutex_lock(ptr noundef %23) #8
  store i32 %24, ptr %5, align 4
  %25 = load i32, ptr %5, align 4
  %26 = icmp ne i32 %25, 0
  br i1 %26, label %27, label %29

27:                                               ; preds = %19
  %28 = load i32, ptr %5, align 4
  store i32 %28, ptr %2, align 4
  br label %97

29:                                               ; preds = %19
  %30 = load ptr, ptr %3, align 8
  %31 = getelementptr inbounds %struct.tMPI_Thread_barrier_t, ptr %30, i32 0, i32 4
  %32 = load volatile i32, ptr %31, align 8
  store i32 %32, ptr %4, align 4
  %33 = load ptr, ptr %3, align 8
  %34 = getelementptr inbounds %struct.tMPI_Thread_barrier_t, ptr %33, i32 0, i32 3
  %35 = load volatile i32, ptr %34, align 4
  %36 = add nsw i32 %35, -1
  store volatile i32 %36, ptr %34, align 4
  %37 = icmp sle i32 %36, 0
  br i1 %37, label %38, label %61

38:                                               ; preds = %29
  %39 = load ptr, ptr %3, align 8
  %40 = getelementptr inbounds %struct.tMPI_Thread_barrier_t, ptr %39, i32 0, i32 4
  %41 = load volatile i32, ptr %40, align 8
  %42 = icmp ne i32 %41, 0
  %43 = xor i1 %42, true
  %44 = zext i1 %43 to i32
  %45 = load ptr, ptr %3, align 8
  %46 = getelementptr inbounds %struct.tMPI_Thread_barrier_t, ptr %45, i32 0, i32 4
  store volatile i32 %44, ptr %46, align 8
  %47 = load ptr, ptr %3, align 8
  %48 = getelementptr inbounds %struct.tMPI_Thread_barrier_t, ptr %47, i32 0, i32 2
  %49 = load volatile i32, ptr %48, align 8
  %50 = load ptr, ptr %3, align 8
  %51 = getelementptr inbounds %struct.tMPI_Thread_barrier_t, ptr %50, i32 0, i32 3
  store volatile i32 %49, ptr %51, align 4
  %52 = load ptr, ptr %3, align 8
  %53 = getelementptr inbounds %struct.tMPI_Thread_barrier_t, ptr %52, i32 0, i32 1
  %54 = load ptr, ptr %53, align 8
  %55 = getelementptr inbounds %struct.tMPI_Thread_barrier, ptr %54, i32 0, i32 2
  %56 = call i32 @pthread_cond_broadcast(ptr noundef %55) #8
  store i32 %56, ptr %5, align 4
  %57 = load i32, ptr %5, align 4
  %58 = icmp eq i32 %57, 0
  br i1 %58, label %59, label %60

59:                                               ; preds = %38
  br label %90

60:                                               ; preds = %38
  br label %83

61:                                               ; preds = %29
  br label %62

62:                                               ; preds = %81, %61
  %63 = load i32, ptr %4, align 4
  %64 = load ptr, ptr %3, align 8
  %65 = getelementptr inbounds %struct.tMPI_Thread_barrier_t, ptr %64, i32 0, i32 4
  %66 = load volatile i32, ptr %65, align 8
  %67 = icmp eq i32 %63, %66
  br i1 %67, label %68, label %82

68:                                               ; preds = %62
  %69 = load ptr, ptr %3, align 8
  %70 = getelementptr inbounds %struct.tMPI_Thread_barrier_t, ptr %69, i32 0, i32 1
  %71 = load ptr, ptr %70, align 8
  %72 = getelementptr inbounds %struct.tMPI_Thread_barrier, ptr %71, i32 0, i32 2
  %73 = load ptr, ptr %3, align 8
  %74 = getelementptr inbounds %struct.tMPI_Thread_barrier_t, ptr %73, i32 0, i32 1
  %75 = load ptr, ptr %74, align 8
  %76 = getelementptr inbounds %struct.tMPI_Thread_barrier, ptr %75, i32 0, i32 1
  %77 = call i32 @pthread_cond_wait(ptr noundef %72, ptr noundef %76)
  store i32 %77, ptr %5, align 4
  %78 = load i32, ptr %5, align 4
  %79 = icmp ne i32 %78, 0
  br i1 %79, label %80, label %81

80:                                               ; preds = %68
  br label %90

81:                                               ; preds = %68
  br label %62, !llvm.loop !4

82:                                               ; preds = %62
  br label %83

83:                                               ; preds = %82, %60
  %84 = load ptr, ptr %3, align 8
  %85 = getelementptr inbounds %struct.tMPI_Thread_barrier_t, ptr %84, i32 0, i32 1
  %86 = load ptr, ptr %85, align 8
  %87 = getelementptr inbounds %struct.tMPI_Thread_barrier, ptr %86, i32 0, i32 1
  %88 = call i32 @pthread_mutex_unlock(ptr noundef %87) #8
  store i32 %88, ptr %5, align 4
  %89 = load i32, ptr %5, align 4
  store i32 %89, ptr %2, align 4
  br label %97

90:                                               ; preds = %80, %59
  %91 = load ptr, ptr %3, align 8
  %92 = getelementptr inbounds %struct.tMPI_Thread_barrier_t, ptr %91, i32 0, i32 1
  %93 = load ptr, ptr %92, align 8
  %94 = getelementptr inbounds %struct.tMPI_Thread_barrier, ptr %93, i32 0, i32 1
  %95 = call i32 @pthread_mutex_unlock(ptr noundef %94) #8
  %96 = load i32, ptr %5, align 4
  store i32 %96, ptr %2, align 4
  br label %97

97:                                               ; preds = %90, %83, %27, %16
  %98 = load i32, ptr %2, align 4
  ret i32 %98
}