; Function Attrs: mustprogress uwtable
define noundef i32 @_Z24tMPI_Thread_barrier_waitP21tMPI_Thread_barrier_t(ptr noundef %0) local_unnamed_addr #4 {
  %2 = load i32, ptr %0, align 8
  %3 = icmp eq i32 %2, 0
  br i1 %3, label %4, label %23

4:                                                ; preds = %1
  %5 = tail call i32 @pthread_mutex_lock(ptr noundef nonnull @_ZL12barrier_init) #13
  %.not.i = icmp eq i32 %5, 0
  br i1 %.not.i, label %6, label %_ZL29tMPI_Thread_barrier_init_onceP21tMPI_Thread_barrier_t.exit.thread

6:                                                ; preds = %4
  %7 = getelementptr inbounds i8, ptr %0, i64 64
  %8 = load ptr, ptr %7, align 8
  %9 = icmp eq ptr %8, null
  br i1 %9, label %10, label %_ZL29tMPI_Thread_barrier_init_onceP21tMPI_Thread_barrier_t.exit

10:                                               ; preds = %6
  %11 = tail call noalias dereferenceable_or_null(168) ptr @malloc(i64 noundef 168) #14
  store ptr %11, ptr %7, align 8
  %12 = icmp eq ptr %11, null
  br i1 %12, label %20, label %13

13:                                               ; preds = %10
  %14 = getelementptr inbounds i8, ptr %11, i64 64
  %15 = tail call i32 @pthread_mutex_init(ptr noundef nonnull %14, ptr noundef null) #13
  %.not16.i = icmp eq i32 %15, 0
  br i1 %.not16.i, label %16, label %20

16:                                               ; preds = %13
  %17 = load ptr, ptr %7, align 8
  %18 = getelementptr inbounds i8, ptr %17, i64 104
  %19 = tail call i32 @pthread_cond_init(ptr noundef nonnull %18, ptr noundef null) #13
  %.not17.i = icmp eq i32 %19, 0
  br i1 %.not17.i, label %_ZL29tMPI_Thread_barrier_init_onceP21tMPI_Thread_barrier_t.exit, label %20

20:                                               ; preds = %16, %13, %10
  %.0.i = phi i32 [ %15, %13 ], [ %19, %16 ], [ 12, %10 ]
  %21 = tail call i32 @pthread_mutex_unlock(ptr noundef nonnull @_ZL12barrier_init) #13
  br label %_ZL29tMPI_Thread_barrier_init_onceP21tMPI_Thread_barrier_t.exit.thread

_ZL29tMPI_Thread_barrier_init_onceP21tMPI_Thread_barrier_t.exit: ; preds = %6, %16
  %22 = tail call i32 @pthread_mutex_unlock(ptr noundef nonnull @_ZL12barrier_init) #13
  %.not = icmp eq i32 %22, 0
  br i1 %.not, label %23, label %_ZL29tMPI_Thread_barrier_init_onceP21tMPI_Thread_barrier_t.exit.thread

23:                                               ; preds = %_ZL29tMPI_Thread_barrier_init_onceP21tMPI_Thread_barrier_t.exit, %1
  %24 = getelementptr inbounds i8, ptr %0, i64 64
  %25 = load ptr, ptr %24, align 8
  %26 = getelementptr inbounds i8, ptr %25, i64 64
  %27 = tail call i32 @pthread_mutex_lock(ptr noundef nonnull %26) #13
  %.not29 = icmp eq i32 %27, 0
  br i1 %.not29, label %28, label %_ZL29tMPI_Thread_barrier_init_onceP21tMPI_Thread_barrier_t.exit.thread

28:                                               ; preds = %23
  %29 = getelementptr inbounds i8, ptr %0, i64 80
  %30 = load volatile i32, ptr %29, align 8
  %31 = getelementptr inbounds i8, ptr %0, i64 76
  %32 = load volatile i32, ptr %31, align 4
  %33 = add nsw i32 %32, -1
  store volatile i32 %33, ptr %31, align 4
  %34 = icmp slt i32 %32, 2
  br i1 %34, label %35, label %.preheader

35:                                               ; preds = %28
  %36 = load volatile i32, ptr %29, align 8
  %.not31 = icmp eq i32 %36, 0
  %37 = zext i1 %.not31 to i32
  store volatile i32 %37, ptr %29, align 8
  %38 = getelementptr inbounds i8, ptr %0, i64 72
  %39 = load volatile i32, ptr %38, align 8
  store volatile i32 %39, ptr %31, align 4
  %40 = load ptr, ptr %24, align 8
  %41 = getelementptr inbounds i8, ptr %40, i64 104
  %42 = tail call i32 @pthread_cond_broadcast(ptr noundef nonnull %41) #13
  %43 = icmp eq i32 %42, 0
  br i1 %43, label %.loopexit34, label %.loopexit

.preheader:                                       ; preds = %28, %46
  %44 = load volatile i32, ptr %29, align 8
  %45 = icmp eq i32 %30, %44
  br i1 %45, label %46, label %.loopexit

46:                                               ; preds = %.preheader
  %47 = load ptr, ptr %24, align 8
  %48 = getelementptr inbounds i8, ptr %47, i64 104
  %49 = getelementptr inbounds i8, ptr %47, i64 64
  %50 = tail call i32 @pthread_cond_wait(ptr noundef nonnull %48, ptr noundef nonnull %49)
  %.not30 = icmp eq i32 %50, 0
  br i1 %.not30, label %.preheader, label %.loopexit34, !llvm.loop !4

.loopexit:                                        ; preds = %.preheader, %35
  %51 = load ptr, ptr %24, align 8
  %52 = getelementptr inbounds i8, ptr %51, i64 64
  %53 = tail call i32 @pthread_mutex_unlock(ptr noundef nonnull %52) #13
  br label %_ZL29tMPI_Thread_barrier_init_onceP21tMPI_Thread_barrier_t.exit.thread

.loopexit34:                                      ; preds = %46, %35
  %.0 = phi i32 [ 0, %35 ], [ %50, %46 ]
  %54 = load ptr, ptr %24, align 8
  %55 = getelementptr inbounds i8, ptr %54, i64 64
  %56 = tail call i32 @pthread_mutex_unlock(ptr noundef nonnull %55) #13
  br label %_ZL29tMPI_Thread_barrier_init_onceP21tMPI_Thread_barrier_t.exit.thread

_ZL29tMPI_Thread_barrier_init_onceP21tMPI_Thread_barrier_t.exit.thread: ; preds = %4, %20, %23, %_ZL29tMPI_Thread_barrier_init_onceP21tMPI_Thread_barrier_t.exit, %.loopexit34, %.loopexit
  %.024 = phi i32 [ %.0, %.loopexit34 ], [ %53, %.loopexit ], [ %22, %_ZL29tMPI_Thread_barrier_init_onceP21tMPI_Thread_barrier_t.exit ], [ %27, %23 ], [ %5, %4 ], [ %.0.i, %20 ]
  ret i32 %.024
}